target datalayout = "e-m:e-p270:32:32-p271:32:32-p272:64:64-i64:64-i128:128-f80:128-n8:16:32:64-S128"
target triple = "x86_64-pc-linux-gnu"

%struct.darktable_t = type { %struct.dt_codepath_t, i32, i32, ptr, ptr, ptr, ptr, ptr, ptr, ptr, ptr, ptr, ptr, ptr, ptr, ptr, ptr, ptr, ptr, ptr, ptr, ptr, ptr, ptr, ptr, ptr, ptr, ptr, ptr, ptr, [64 x %struct.dt_pthread_mutex_t], %struct.dt_pthread_mutex_t, %struct.dt_pthread_mutex_t, %struct.dt_pthread_mutex_t, %struct.dt_pthread_mutex_t, %struct.dt_pthread_mutex_t, ptr, ptr, ptr, ptr, ptr, ptr, ptr, ptr, ptr, ptr, ptr, ptr, ptr, %struct.dt_lua_state_t, ptr, double, ptr, i32, [47 x i32], i32, i32, ptr, ptr, %struct.dt_sys_resources_t, %struct.dt_backthumb_t, %struct.dt_gimp_t }
%struct.dt_codepath_t = type { i8, [3 x i8] }
%struct.dt_pthread_mutex_t = type { %union.pthread_mutex_t }
%union.pthread_mutex_t = type { %struct.__pthread_mutex_s }
%struct.__pthread_mutex_s = type { i32, i32, i32, i32, i32, i16, i16, %struct.__pthread_internal_list }
%struct.__pthread_internal_list = type { ptr, ptr }
%struct.dt_lua_state_t = type { i32 }
%struct.dt_sys_resources_t = type { i64, i64, ptr, ptr, i32 }
%struct.dt_backthumb_t = type { double, double, i32, i32, i32, i32 }
%struct.dt_gimp_t = type { i32, ptr, ptr, i32, i32 }
%struct.dt_camctl_t = type { %struct.dt_pthread_mutex_t, %struct.dt_pthread_mutex_t, i64, ptr, ptr, ptr, ptr, ptr, ptr, ptr, ptr, i32, i32, i32 }
%struct.dt_camera_t = type { ptr, ptr, %struct.CameraText, ptr, ptr, %struct.dt_pthread_mutex_t, i32, i32, i32, i32, i32, i32, i32, i32, i32, ptr, %struct.dt_pthread_mutex_t, ptr, %struct.anon, ptr, ptr, i32, i32, i32, i32, ptr, i32, i32, i32, i32, i32, i32, i32, i32, i64, %struct.dt_pthread_mutex_t, %struct.dt_pthread_mutex_t }
%struct.CameraText = type { [32768 x i8] }
%struct.anon = type { ptr, i32 }
%struct._camctl_camera_set_property_int_job_t = type { i32, ptr, i32 }

@darktable = external global %struct.darktable_t, align 8
@.str = private unnamed_addr constant [57 x i8] c"[camera_control] Failed to start live view, camera==NULL\00", align 1
@.str.1 = private unnamed_addr constant [36 x i8] c"[camera_control] Starting live view\00", align 1
@.str.2 = private unnamed_addr constant [51 x i8] c"[camera_control] Camera does not support live view\00", align 1
@.str.3 = private unnamed_addr constant [14 x i8] c"eosviewfinder\00", align 1
@.str.4 = private unnamed_addr constant [11 x i8] c"viewfinder\00", align 1
@.str.26 = private unnamed_addr constant [66 x i8] c"[camera_control] failed to set property from camera, camera==NULL\00", align 1

; Function Attrs: inlinehint nounwind uwtable
define internal i32 @dt_pthread_mutex_unlock(ptr noundef %0) #4 {
  %2 = alloca ptr, align 8
  store ptr %0, ptr %2, align 8, !tbaa !91
  %3 = load ptr, ptr %2, align 8, !tbaa !91
  %4 = getelementptr inbounds nuw %struct.dt_pthread_mutex_t, ptr %3, i32 0, i32 0
  %5 = call i32 @pthread_mutex_unlock(ptr noundef %4) #10
  ret i32 %5
}

; Function Attrs: inlinehint nounwind uwtable
define internal i32 @dt_pthread_mutex_lock(ptr noundef %0) #4 {
  %2 = alloca ptr, align 8
  store ptr %0, ptr %2, align 8, !tbaa !91
  %3 = load ptr, ptr %2, align 8, !tbaa !91
  %4 = getelementptr inbounds nuw %struct.dt_pthread_mutex_t, ptr %3, i32 0, i32 0
  %5 = call i32 @pthread_mutex_lock(ptr noundef %4) #10
  ret i32 %5
}

; Function Attrs: nounwind uwtable
define internal void @_camera_add_job(ptr noundef %0, ptr noundef %1, ptr noundef %2) #0 {
  %4 = alloca ptr, align 8
  %5 = alloca ptr, align 8
  %6 = alloca ptr, align 8
  %7 = alloca ptr, align 8
  store ptr %0, ptr %4, align 8, !tbaa !6
  store ptr %1, ptr %5, align 8, !tbaa !21
  store ptr %2, ptr %6, align 8, !tbaa !72
  call void @llvm.lifetime.start.p0(i64 8, ptr %7) #10
  %8 = load ptr, ptr %5, align 8, !tbaa !21
  store ptr %8, ptr %7, align 8, !tbaa !21
  %9 = load ptr, ptr %7, align 8, !tbaa !21
  %10 = getelementptr inbounds nuw %struct.dt_camera_t, ptr %9, i32 0, i32 16
  %11 = call i32 @dt_pthread_mutex_lock(ptr noundef %10)
  %12 = load ptr, ptr %7, align 8, !tbaa !21
  %13 = getelementptr inbounds nuw %struct.dt_camera_t, ptr %12, i32 0, i32 17
  %14 = load ptr, ptr %13, align 8, !tbaa !164
  %15 = load ptr, ptr %6, align 8, !tbaa !72
  %16 = call ptr @g_list_append(ptr noundef %14, ptr noundef %15)
  %17 = load ptr, ptr %7, align 8, !tbaa !21
  %18 = getelementptr inbounds nuw %struct.dt_camera_t, ptr %17, i32 0, i32 17
  store ptr %16, ptr %18, align 8, !tbaa !164
  %19 = load ptr, ptr %7, align 8, !tbaa !21
  %20 = getelementptr inbounds nuw %struct.dt_camera_t, ptr %19, i32 0, i32 16
  %21 = call i32 @dt_pthread_mutex_unlock(ptr noundef %20)
  call void @llvm.lifetime.end.p0(i64 8, ptr %7) #10
  ret void
}

; Function Attrs: nounwind uwtable
define void @dt_camctl_camera_set_property_int(ptr noundef %0, ptr noundef %1, ptr noundef %2, i32 noundef %3) #0 {
  %5 = alloca ptr, align 8
  %6 = alloca ptr, align 8
  %7 = alloca ptr, align 8
  %8 = alloca i32, align 4
  %9 = alloca ptr, align 8
  %10 = alloca i32, align 4
  %11 = alloca ptr, align 8
  %12 = alloca ptr, align 8
  store ptr %0, ptr %5, align 8, !tbaa !6
  store ptr %1, ptr %6, align 8, !tbaa !21
  store ptr %2, ptr %7, align 8, !tbaa !63
  store i32 %3, ptr %8, align 4, !tbaa !64
  call void @llvm.lifetime.start.p0(i64 8, ptr %9) #10
  %13 = load ptr, ptr %5, align 8, !tbaa !6
  store ptr %13, ptr %9, align 8, !tbaa !6
  %14 = load ptr, ptr %6, align 8, !tbaa !21
  %15 = icmp ne ptr %14, null
  br i1 %15, label %40, label %16

16:                                               ; preds = %4
  %17 = load ptr, ptr %9, align 8, !tbaa !6
  %18 = getelementptr inbounds nuw %struct.dt_camctl_t, ptr %17, i32 0, i32 10
  %19 = load ptr, ptr %18, align 8, !tbaa !11
  store ptr %19, ptr %6, align 8, !tbaa !21
  %20 = icmp eq ptr %19, null
  br i1 %20, label %21, label %40

21:                                               ; preds = %16
  %22 = load ptr, ptr %9, align 8, !tbaa !6
  %23 = getelementptr inbounds nuw %struct.dt_camctl_t, ptr %22, i32 0, i32 9
  %24 = load ptr, ptr %23, align 8, !tbaa !65
  store ptr %24, ptr %6, align 8, !tbaa !21
  %25 = icmp eq ptr %24, null
  br i1 %25, label %26, label %40

26:                                               ; preds = %21
  br label %27

27:                                               ; preds = %26
  %28 = load i32, ptr getelementptr inbounds nuw (%struct.darktable_t, ptr @darktable, i32 0, i32 2), align 8, !tbaa !22
  %29 = and i32 32, %28
  %30 = icmp ne i32 %29, 0
  br i1 %30, label %31, label %37

31:                                               ; preds = %27
  %32 = load i32, ptr getelementptr inbounds nuw (%struct.darktable_t, ptr @darktable, i32 0, i32 2), align 8, !tbaa !22
  %33 = xor i32 %32, -1
  %34 = and i32 0, %33
  %35 = icmp ne i32 %34, 0
  br i1 %35, label %37, label %36

36:                                               ; preds = %31
  call void (ptr, ...) @dt_print_ext(ptr noundef @.str.26)
  br label %37

37:                                               ; preds = %36, %31, %27
  br label %38

38:                                               ; preds = %37
  br label %39

39:                                               ; preds = %38
  store i32 1, ptr %10, align 4
  br label %55

40:                                               ; preds = %21, %16, %4
  call void @llvm.lifetime.start.p0(i64 8, ptr %11) #10
  %41 = load ptr, ptr %6, align 8, !tbaa !21
  store ptr %41, ptr %11, align 8, !tbaa !21
  call void @llvm.lifetime.start.p0(i64 8, ptr %12) #10
  %42 = call noalias ptr @g_malloc(i64 noundef 24) #11
  store ptr %42, ptr %12, align 8, !tbaa !66
  %43 = load ptr, ptr %12, align 8, !tbaa !66
  %44 = getelementptr inbounds nuw %struct._camctl_camera_set_property_int_job_t, ptr %43, i32 0, i32 0
  store i32 8, ptr %44, align 8, !tbaa !68
  %45 = load ptr, ptr %7, align 8, !tbaa !63
  %46 = call noalias ptr @g_strdup(ptr noundef %45)
  %47 = load ptr, ptr %12, align 8, !tbaa !66
  %48 = getelementptr inbounds nuw %struct._camctl_camera_set_property_int_job_t, ptr %47, i32 0, i32 1
  store ptr %46, ptr %48, align 8, !tbaa !70
  %49 = load i32, ptr %8, align 4, !tbaa !64
  %50 = load ptr, ptr %12, align 8, !tbaa !66
  %51 = getelementptr inbounds nuw %struct._camctl_camera_set_property_int_job_t, ptr %50, i32 0, i32 2
  store i32 %49, ptr %51, align 8, !tbaa !71
  %52 = load ptr, ptr %9, align 8, !tbaa !6
  %53 = load ptr, ptr %11, align 8, !tbaa !21
  %54 = load ptr, ptr %12, align 8, !tbaa !66
  call void @_camera_add_job(ptr noundef %52, ptr noundef %53, ptr noundef %54)
  call void @llvm.lifetime.end.p0(i64 8, ptr %12) #10
  call void @llvm.lifetime.end.p0(i64 8, ptr %11) #10
  store i32 0, ptr %10, align 4
  br label %55

55:                                               ; preds = %40, %39
  call void @llvm.lifetime.end.p0(i64 8, ptr %9) #10
  %56 = load i32, ptr %10, align 4
  switch i32 %56, label %58 [
    i32 0, label %57
    i32 1, label %57
  ]

57:                                               ; preds = %55, %55
  ret void

58:                                               ; preds = %55
  unreachable
}

; Function Attrs: nounwind uwtable
define i32 @dt_camctl_camera_start_live_view(ptr noundef %0) #0 {
  %2 = alloca i32, align 4
  %3 = alloca ptr, align 8
  %4 = alloca ptr, align 8
  %5 = alloca ptr, align 8
  %6 = alloca i32, align 4
  store ptr %0, ptr %3, align 8, !tbaa !6
  call void @llvm.lifetime.start.p0(i64 8, ptr %4) #10
  %7 = load ptr, ptr %3, align 8, !tbaa !6
  store ptr %7, ptr %4, align 8, !tbaa !6
  call void @llvm.lifetime.start.p0(i64 8, ptr %5) #10
  %8 = load ptr, ptr %4, align 8, !tbaa !6
  %9 = getelementptr inbounds nuw %struct.dt_camctl_t, ptr %8, i32 0, i32 10
  %10 = load ptr, ptr %9, align 8, !tbaa !11
  store ptr %10, ptr %5, align 8, !tbaa !21
  %11 = load ptr, ptr %5, align 8, !tbaa !21
  %12 = icmp eq ptr %11, null
  br i1 %12, label %13, label %27

13:                                               ; preds = %1
  br label %14

14:                                               ; preds = %13
  %15 = load i32, ptr getelementptr inbounds nuw (%struct.darktable_t, ptr @darktable, i32 0, i32 2), align 8, !tbaa !22
  %16 = and i32 32, %15
  %17 = icmp ne i32 %16, 0
  br i1 %17, label %18, label %24

18:                                               ; preds = %14
  %19 = load i32, ptr getelementptr inbounds nuw (%struct.darktable_t, ptr @darktable, i32 0, i32 2), align 8, !tbaa !22
  %20 = xor i32 %19, -1
  %21 = and i32 0, %20
  %22 = icmp ne i32 %21, 0
  br i1 %22, label %24, label %23

23:                                               ; preds = %18
  call void (ptr, ...) @dt_print_ext(ptr noundef @.str)
  br label %24

24:                                               ; preds = %23, %18, %14
  br label %25

25:                                               ; preds = %24
  br label %26

26:                                               ; preds = %25
  store i32 0, ptr %2, align 4
  store i32 1, ptr %6, align 4
  br label %69

27:                                               ; preds = %1
  br label %28

28:                                               ; preds = %27
  %29 = load i32, ptr getelementptr inbounds nuw (%struct.darktable_t, ptr @darktable, i32 0, i32 2), align 8, !tbaa !22
  %30 = and i32 32, %29
  %31 = icmp ne i32 %30, 0
  br i1 %31, label %32, label %38

32:                                               ; preds = %28
  %33 = load i32, ptr getelementptr inbounds nuw (%struct.darktable_t, ptr @darktable, i32 0, i32 2), align 8, !tbaa !22
  %34 = xor i32 %33, -1
  %35 = and i32 0, %34
  %36 = icmp ne i32 %35, 0
  br i1 %36, label %38, label %37

37:                                               ; preds = %32
  call void (ptr, ...) @dt_print_ext(ptr noundef @.str.1)
  br label %38

38:                                               ; preds = %37, %32, %28
  br label %39

39:                                               ; preds = %38
  br label %40

40:                                               ; preds = %39
  br label %41

41:                                               ; preds = %40
  %42 = load ptr, ptr %5, align 8, !tbaa !21
  %43 = getelementptr inbounds nuw %struct.dt_camera_t, ptr %42, i32 0, i32 8
  %44 = load i32, ptr %43, align 8, !tbaa !56
  %45 = icmp eq i32 %44, 0
  br i1 %45, label %46, label %60

46:                                               ; preds = %41
  br label %47

47:                                               ; preds = %46
  %48 = load i32, ptr getelementptr inbounds nuw (%struct.darktable_t, ptr @darktable, i32 0, i32 2), align 8, !tbaa !22
  %49 = and i32 32, %48
  %50 = icmp ne i32 %49, 0
  br i1 %50, label %51, label %57

51:                                               ; preds = %47
  %52 = load i32, ptr getelementptr inbounds nuw (%struct.darktable_t, ptr @darktable, i32 0, i32 2), align 8, !tbaa !22
  %53 = xor i32 %52, -1
  %54 = and i32 0, %53
  %55 = icmp ne i32 %54, 0
  br i1 %55, label %57, label %56

56:                                               ; preds = %51
  call void (ptr, ...) @dt_print_ext(ptr noundef @.str.2)
  br label %57

57:                                               ; preds = %56, %51, %47
  br label %58

58:                                               ; preds = %57
  br label %59

59:                                               ; preds = %58
  store i32 0, ptr %2, align 4
  store i32 1, ptr %6, align 4
  br label %69

60:                                               ; preds = %41
  %61 = load ptr, ptr %5, align 8, !tbaa !21
  %62 = getelementptr inbounds nuw %struct.dt_camera_t, ptr %61, i32 0, i32 24
  store i32 1, ptr %62, align 4, !tbaa !62
  %63 = load ptr, ptr %4, align 8, !tbaa !6
  call void @dt_camctl_camera_set_property_int(ptr noundef %63, ptr noundef null, ptr noundef @.str.3, i32 noundef 1)
  %64 = load ptr, ptr %4, align 8, !tbaa !6
  call void @dt_camctl_camera_set_property_int(ptr noundef %64, ptr noundef null, ptr noundef @.str.4, i32 noundef 1)
  %65 = load ptr, ptr %5, align 8, !tbaa !21
  %66 = getelementptr inbounds nuw %struct.dt_camera_t, ptr %65, i32 0, i32 34
  %67 = load ptr, ptr %4, align 8, !tbaa !6
  %68 = call i32 @dt_pthread_create(ptr noundef %66, ptr noundef @dt_camctl_camera_get_live_view, ptr noundef %67)
  store i32 1, ptr %2, align 4
  store i32 1, ptr %6, align 4
  br label %69

69:                                               ; preds = %60, %59, %26
  call void @llvm.lifetime.end.p0(i64 8, ptr %5) #10
  call void @llvm.lifetime.end.p0(i64 8, ptr %4) #10
  %70 = load i32, ptr %2, align 4
  ret i32 %70
}