; Function Attrs: nounwind uwtable
define range(i32 0, 2) i32 @dt_camctl_camera_start_live_view(ptr noundef %0) local_unnamed_addr #0 {
  %2 = getelementptr inbounds nuw i8, ptr %0, i64 144
  %3 = load ptr, ptr %2, align 8, !tbaa !6
  %4 = icmp eq ptr %3, null
  %5 = load i32, ptr getelementptr inbounds nuw (i8, ptr @darktable, i64 8), align 8, !tbaa !19
  %6 = and i32 %5, 32
  %.not11 = icmp eq i32 %6, 0
  br i1 %4, label %7, label %9

7:                                                ; preds = %1
  br i1 %.not11, label %65, label %8

8:                                                ; preds = %7
  tail call void (ptr, ...) @dt_print_ext(ptr noundef nonnull @.str) #15
  br label %65

9:                                                ; preds = %1
  br i1 %.not11, label %11, label %10

10:                                               ; preds = %9
  tail call void (ptr, ...) @dt_print_ext(ptr noundef nonnull @.str.1) #15
  br label %11

11:                                               ; preds = %9, %10
  %12 = getelementptr inbounds nuw i8, ptr %3, i64 32848
  %13 = load i32, ptr %12, align 8, !tbaa !54
  %14 = icmp eq i32 %13, 0
  br i1 %14, label %15, label %19

15:                                               ; preds = %11
  %16 = load i32, ptr getelementptr inbounds nuw (i8, ptr @darktable, i64 8), align 8, !tbaa !19
  %17 = and i32 %16, 32
  %.not10 = icmp eq i32 %17, 0
  br i1 %.not10, label %65, label %18

18:                                               ; preds = %15
  tail call void (ptr, ...) @dt_print_ext(ptr noundef nonnull @.str.2) #15
  br label %65

19:                                               ; preds = %11
  %20 = getelementptr inbounds nuw i8, ptr %3, i64 32980
  store i32 1, ptr %20, align 4, !tbaa !60
  %21 = load ptr, ptr %2, align 8, !tbaa !6
  %22 = icmp eq ptr %21, null
  br i1 %22, label %23, label %31

23:                                               ; preds = %19
  %24 = getelementptr inbounds nuw i8, ptr %0, i64 136
  %25 = load ptr, ptr %24, align 8, !tbaa !61
  %26 = icmp eq ptr %25, null
  br i1 %26, label %27, label %31

27:                                               ; preds = %23
  %28 = load i32, ptr getelementptr inbounds nuw (i8, ptr @darktable, i64 8), align 8, !tbaa !19
  %29 = and i32 %28, 32
  %.not15.i = icmp eq i32 %29, 0
  br i1 %.not15.i, label %dt_camctl_camera_set_property_int.exit, label %30

30:                                               ; preds = %27
  tail call void (ptr, ...) @dt_print_ext(ptr noundef nonnull @.str.26) #15
  br label %dt_camctl_camera_set_property_int.exit

31:                                               ; preds = %23, %19
  %.0.i = phi ptr [ %25, %23 ], [ %21, %19 ]
  %32 = tail call noalias dereferenceable_or_null(24) ptr @g_malloc(i64 noundef 24) #16
  store i32 8, ptr %32, align 8, !tbaa !62
  %33 = tail call noalias ptr @g_strdup(ptr noundef nonnull @.str.3) #15
  %34 = getelementptr inbounds nuw i8, ptr %32, i64 8
  store ptr %33, ptr %34, align 8, !tbaa !64
  %35 = getelementptr inbounds nuw i8, ptr %32, i64 16
  store i32 1, ptr %35, align 8, !tbaa !65
  %36 = getelementptr inbounds nuw i8, ptr %.0.i, i64 32888
  %37 = tail call i32 @pthread_mutex_lock(ptr noundef nonnull %36) #15
  %38 = getelementptr inbounds nuw i8, ptr %.0.i, i64 32928
  %39 = load ptr, ptr %38, align 8, !tbaa !66
  %40 = tail call ptr @g_list_append(ptr noundef %39, ptr noundef nonnull %32) #15
  store ptr %40, ptr %38, align 8, !tbaa !66
  %41 = tail call i32 @pthread_mutex_unlock(ptr noundef nonnull %36) #15
  br label %dt_camctl_camera_set_property_int.exit

dt_camctl_camera_set_property_int.exit:           ; preds = %27, %30, %31
  %42 = load ptr, ptr %2, align 8, !tbaa !6
  %43 = icmp eq ptr %42, null
  br i1 %43, label %44, label %52

44:                                               ; preds = %dt_camctl_camera_set_property_int.exit
  %45 = getelementptr inbounds nuw i8, ptr %0, i64 136
  %46 = load ptr, ptr %45, align 8, !tbaa !61
  %47 = icmp eq ptr %46, null
  br i1 %47, label %48, label %52

48:                                               ; preds = %44
  %49 = load i32, ptr getelementptr inbounds nuw (i8, ptr @darktable, i64 8), align 8, !tbaa !19
  %50 = and i32 %49, 32
  %.not15.i13 = icmp eq i32 %50, 0
  br i1 %.not15.i13, label %dt_camctl_camera_set_property_int.exit14, label %51

51:                                               ; preds = %48
  tail call void (ptr, ...) @dt_print_ext(ptr noundef nonnull @.str.26) #15
  br label %dt_camctl_camera_set_property_int.exit14

52:                                               ; preds = %44, %dt_camctl_camera_set_property_int.exit
  %.0.i12 = phi ptr [ %46, %44 ], [ %42, %dt_camctl_camera_set_property_int.exit ]
  %53 = tail call noalias dereferenceable_or_null(24) ptr @g_malloc(i64 noundef 24) #16
  store i32 8, ptr %53, align 8, !tbaa !62
  %54 = tail call noalias ptr @g_strdup(ptr noundef nonnull @.str.4) #15
  %55 = getelementptr inbounds nuw i8, ptr %53, i64 8
  store ptr %54, ptr %55, align 8, !tbaa !64
  %56 = getelementptr inbounds nuw i8, ptr %53, i64 16
  store i32 1, ptr %56, align 8, !tbaa !65
  %57 = getelementptr inbounds nuw i8, ptr %.0.i12, i64 32888
  %58 = tail call i32 @pthread_mutex_lock(ptr noundef nonnull %57) #15
  %59 = getelementptr inbounds nuw i8, ptr %.0.i12, i64 32928
  %60 = load ptr, ptr %59, align 8, !tbaa !66
  %61 = tail call ptr @g_list_append(ptr noundef %60, ptr noundef nonnull %53) #15
  store ptr %61, ptr %59, align 8, !tbaa !66
  %62 = tail call i32 @pthread_mutex_unlock(ptr noundef nonnull %57) #15
  br label %dt_camctl_camera_set_property_int.exit14

dt_camctl_camera_set_property_int.exit14:         ; preds = %48, %51, %52
  %63 = getelementptr inbounds nuw i8, ptr %3, i64 33024
  %64 = tail call i32 @dt_pthread_create(ptr noundef nonnull %63, ptr noundef nonnull @dt_camctl_camera_get_live_view, ptr noundef nonnull %0) #15
  br label %65

65:                                               ; preds = %15, %18, %7, %8, %dt_camctl_camera_set_property_int.exit14
  %.0 = phi i32 [ 1, %dt_camctl_camera_set_property_int.exit14 ], [ 0, %8 ], [ 0, %7 ], [ 0, %18 ], [ 0, %15 ]
  ret i32 %.0
}